; Function Attrs: inlinehint mustprogress nounwind uwtable
define internal fastcc void @_ZN2cv12_GLOBAL__N_18GSafePtrI9_GstQueryED2Ev(ptr noundef nonnull align 8 captures(none) dereferenceable(8) %0) unnamed_addr #5 align 2 personality ptr @__gxx_personality_v0 {
  %2 = load ptr, ptr %0, align 8, !tbaa !549
  %.not.i = icmp eq ptr %2, null
  br i1 %.not.i, label %_ZN2cv12_GLOBAL__N_18GSafePtrI9_GstQueryE7releaseEv.exit, label %3

3:                                                ; preds = %1
  invoke void @gst_mini_object_unref(ptr noundef nonnull %2)
          to label %_ZN2cv12_GLOBAL__N_116GSafePtr_releaseI9_GstQueryEEvPPT_.exit.i unwind label %4

_ZN2cv12_GLOBAL__N_116GSafePtr_releaseI9_GstQueryEEvPPT_.exit.i: ; preds = %3
  store ptr null, ptr %0, align 8, !tbaa !569
  br label %_ZN2cv12_GLOBAL__N_18GSafePtrI9_GstQueryE7releaseEv.exit

4:                                                ; preds = %3
  %5 = landingpad { ptr, i32 }
          catch ptr null
  %6 = extractvalue { ptr, i32 } %5, 0
  tail call void @__clang_call_terminate(ptr %6) #32
  unreachable

_ZN2cv12_GLOBAL__N_18GSafePtrI9_GstQueryE7releaseEv.exit: ; preds = %1, %_ZN2cv12_GLOBAL__N_116GSafePtr_releaseI9_GstQueryEEvPPT_.exit.i
  ret void
}